target datalayout = "e-m:e-p270:32:32-p271:32:32-p272:64:64-i64:64-i128:128-f80:128-n8:16:32:64-S128"
target triple = "x86_64-unknown-linux-gnu"

%"class.Assimp::STLExporter" = type { %"class.std::__cxx11::basic_ostringstream", %"class.std::__cxx11::basic_string", %"class.std::__cxx11::basic_string" }
%"class.std::__cxx11::basic_ostringstream" = type { %"class.std::basic_ostream.base", %"class.std::__cxx11::basic_stringbuf", %"class.std::basic_ios" }
%"class.std::basic_ostream.base" = type { ptr }
%"class.std::__cxx11::basic_stringbuf" = type { %"class.std::basic_streambuf", i32, %"class.std::__cxx11::basic_string" }
%"class.std::basic_streambuf" = type { ptr, ptr, ptr, ptr, ptr, ptr, ptr, %"class.std::locale" }
%"class.std::locale" = type { ptr }
%"class.std::basic_ios" = type { %"class.std::ios_base", ptr, i8, i8, ptr, ptr, ptr, ptr }
%"class.std::ios_base" = type { ptr, i64, i64, i32, i32, i32, ptr, %"struct.std::ios_base::_Words", [8 x %"struct.std::ios_base::_Words"], i32, ptr, %"class.std::locale" }
%"struct.std::ios_base::_Words" = type { ptr, i64 }
%"class.std::__cxx11::basic_string" = type { %"struct.std::__cxx11::basic_string<char>::_Alloc_hider", i64, %union.anon }
%"struct.std::__cxx11::basic_string<char>::_Alloc_hider" = type { ptr }
%union.anon = type { i64, [8 x i8] }
%struct.aiScene = type { i32, ptr, i32, ptr, i32, ptr, i32, ptr, i32, ptr, i32, ptr, i32, ptr, ptr, %struct.aiString, i32, ptr, ptr }
%struct.aiString = type { i32, [1024 x i8] }
%struct.aiMesh = type { i32, i32, i32, ptr, ptr, ptr, ptr, [8 x ptr], [8 x ptr], [8 x i32], ptr, i32, ptr, i32, %struct.aiString, i32, ptr, i32, %struct.aiAABB, ptr }
%struct.aiAABB = type { %class.aiVector3t, %class.aiVector3t }
%class.aiVector3t = type { float, float, float }

@_ZL10SolidToken = internal global ptr @.str.16, align 8
@.str.10 = private unnamed_addr constant [2 x i8] c" \00", align 1
@_ZL13EndSolidToken = internal global ptr @.str.17, align 8
@.str.11 = private unnamed_addr constant [15 x i8] c" facet normal \00", align 1
@.str.12 = private unnamed_addr constant [10 x i8] c"  vertex \00", align 1

; Function Attrs: mustprogress nounwind uwtable
define linkonce_odr hidden void @_ZN10aiVector3tIfEC2Ev(ptr noundef nonnull align 4 dereferenceable(12) %this) unnamed_addr #0 comdat align 2 {
entry:
  %this.addr = alloca ptr, align 8
  store ptr %this, ptr %this.addr, align 8
  %this1 = load ptr, ptr %this.addr, align 8
  %x = getelementptr inbounds %class.aiVector3t, ptr %this1, i32 0, i32 0
  store float 0.000000e+00, ptr %x, align 4
  %y = getelementptr inbounds %class.aiVector3t, ptr %this1, i32 0, i32 1
  store float 0.000000e+00, ptr %y, align 4
  %z = getelementptr inbounds %class.aiVector3t, ptr %this1, i32 0, i32 2
  store float 0.000000e+00, ptr %z, align 4
  ret void
}

; Function Attrs: mustprogress uwtable
define hidden void @_ZN6Assimp11STLExporter15WritePointCloudERKNSt7__cxx1112basic_stringIcSt11char_traitsIcESaIcEEEPK7aiScene(ptr noundef nonnull align 8 dereferenceable(440) %this, ptr noundef nonnull align 8 dereferenceable(32) %name, ptr noundef %pScene) #2 align 2 {
entry:
  %this.addr = alloca ptr, align 8
  %name.addr = alloca ptr, align 8
  %pScene.addr = alloca ptr, align 8
  %nor = alloca %class.aiVector3t, align 4
  %i = alloca i32, align 4
  %mesh = alloca ptr, align 8
  %a = alloca i32, align 4
  %v = alloca ptr, align 8
  store ptr %this, ptr %this.addr, align 8
  store ptr %name, ptr %name.addr, align 8
  store ptr %pScene, ptr %pScene.addr, align 8
  %this1 = load ptr, ptr %this.addr, align 8
  %mOutput = getelementptr inbounds %"class.Assimp::STLExporter", ptr %this1, i32 0, i32 0
  %call = call noundef nonnull align 8 dereferenceable(8) ptr @_ZStlsISt11char_traitsIcEERSt13basic_ostreamIcT_ES5_PKc(ptr noundef nonnull align 8 dereferenceable(8) %mOutput, ptr noundef @.str.10)
  %0 = load ptr, ptr @_ZL10SolidToken, align 8
  %call2 = call noundef nonnull align 8 dereferenceable(8) ptr @_ZStlsISt11char_traitsIcEERSt13basic_ostreamIcT_ES5_PKc(ptr noundef nonnull align 8 dereferenceable(8) %call, ptr noundef %0)
  %call3 = call noundef nonnull align 8 dereferenceable(8) ptr @_ZStlsISt11char_traitsIcEERSt13basic_ostreamIcT_ES5_PKc(ptr noundef nonnull align 8 dereferenceable(8) %call2, ptr noundef @.str.10)
  %1 = load ptr, ptr %name.addr, align 8
  %call4 = call noundef nonnull align 8 dereferenceable(8) ptr @_ZStlsIcSt11char_traitsIcESaIcEERSt13basic_ostreamIT_T0_ES7_RKNSt7__cxx1112basic_stringIS4_S5_T1_EE(ptr noundef nonnull align 8 dereferenceable(8) %call3, ptr noundef nonnull align 8 dereferenceable(32) %1)
  %endl = getelementptr inbounds %"class.Assimp::STLExporter", ptr %this1, i32 0, i32 2
  %call5 = call noundef nonnull align 8 dereferenceable(8) ptr @_ZStlsIcSt11char_traitsIcESaIcEERSt13basic_ostreamIT_T0_ES7_RKNSt7__cxx1112basic_stringIS4_S5_T1_EE(ptr noundef nonnull align 8 dereferenceable(8) %call4, ptr noundef nonnull align 8 dereferenceable(32) %endl)
  call void @_ZN10aiVector3tIfEC2Ev(ptr noundef nonnull align 4 dereferenceable(12) %nor) #11
  %mOutput6 = getelementptr inbounds %"class.Assimp::STLExporter", ptr %this1, i32 0, i32 0
  %call7 = call noundef nonnull align 8 dereferenceable(8) ptr @_ZStlsISt11char_traitsIcEERSt13basic_ostreamIcT_ES5_PKc(ptr noundef nonnull align 8 dereferenceable(8) %mOutput6, ptr noundef @.str.11)
  %x = getelementptr inbounds %class.aiVector3t, ptr %nor, i32 0, i32 0
  %2 = load float, ptr %x, align 4
  %call8 = call noundef nonnull align 8 dereferenceable(8) ptr @_ZNSolsEf(ptr noundef nonnull align 8 dereferenceable(8) %call7, float noundef %2)
  %call9 = call noundef nonnull align 8 dereferenceable(8) ptr @_ZStlsISt11char_traitsIcEERSt13basic_ostreamIcT_ES5_PKc(ptr noundef nonnull align 8 dereferenceable(8) %call8, ptr noundef @.str.10)
  %y = getelementptr inbounds %class.aiVector3t, ptr %nor, i32 0, i32 1
  %3 = load float, ptr %y, align 4
  %call10 = call noundef nonnull align 8 dereferenceable(8) ptr @_ZNSolsEf(ptr noundef nonnull align 8 dereferenceable(8) %call9, float noundef %3)
  %call11 = call noundef nonnull align 8 dereferenceable(8) ptr @_ZStlsISt11char_traitsIcEERSt13basic_ostreamIcT_ES5_PKc(ptr noundef nonnull align 8 dereferenceable(8) %call10, ptr noundef @.str.10)
  %z = getelementptr inbounds %class.aiVector3t, ptr %nor, i32 0, i32 2
  %4 = load float, ptr %z, align 4
  %call12 = call noundef nonnull align 8 dereferenceable(8) ptr @_ZNSolsEf(ptr noundef nonnull align 8 dereferenceable(8) %call11, float noundef %4)
  %endl13 = getelementptr inbounds %"class.Assimp::STLExporter", ptr %this1, i32 0, i32 2
  %call14 = call noundef nonnull align 8 dereferenceable(8) ptr @_ZStlsIcSt11char_traitsIcESaIcEERSt13basic_ostreamIT_T0_ES7_RKNSt7__cxx1112basic_stringIS4_S5_T1_EE(ptr noundef nonnull align 8 dereferenceable(8) %call12, ptr noundef nonnull align 8 dereferenceable(32) %endl13)
  store i32 0, ptr %i, align 4
  br label %for.cond

for.cond:                                         ; preds = %for.inc57, %entry
  %5 = load i32, ptr %i, align 4
  %6 = load ptr, ptr %pScene.addr, align 8
  %mNumMeshes = getelementptr inbounds %struct.aiScene, ptr %6, i32 0, i32 2
  %7 = load i32, ptr %mNumMeshes, align 8
  %cmp = icmp ult i32 %5, %7
  br i1 %cmp, label %for.body, label %for.end59

for.body:                                         ; preds = %for.cond
  %8 = load ptr, ptr %pScene.addr, align 8
  %mMeshes = getelementptr inbounds %struct.aiScene, ptr %8, i32 0, i32 3
  %9 = load ptr, ptr %mMeshes, align 8
  %10 = load i32, ptr %i, align 4
  %idxprom = zext i32 %10 to i64
  %arrayidx = getelementptr inbounds ptr, ptr %9, i64 %idxprom
  %11 = load ptr, ptr %arrayidx, align 8
  store ptr %11, ptr %mesh, align 8
  %12 = load ptr, ptr %mesh, align 8
  %cmp15 = icmp eq ptr null, %12
  br i1 %cmp15, label %if.then, label %if.end

if.then:                                          ; preds = %for.body
  br label %for.inc57

if.end:                                           ; preds = %for.body
  store i32 0, ptr %a, align 4
  br label %for.cond16

for.cond16:                                       ; preds = %for.inc, %if.end
  %13 = load i32, ptr %a, align 4
  %14 = load ptr, ptr %mesh, align 8
  %mNumVertices = getelementptr inbounds %struct.aiMesh, ptr %14, i32 0, i32 1
  %15 = load i32, ptr %mNumVertices, align 4
  %cmp17 = icmp ult i32 %13, %15
  br i1 %cmp17, label %for.body18, label %for.end

for.body18:                                       ; preds = %for.cond16
  %16 = load ptr, ptr %mesh, align 8
  %mVertices = getelementptr inbounds %struct.aiMesh, ptr %16, i32 0, i32 3
  %17 = load ptr, ptr %mVertices, align 8
  %18 = load i32, ptr %a, align 4
  %idxprom19 = zext i32 %18 to i64
  %arrayidx20 = getelementptr inbounds %class.aiVector3t, ptr %17, i64 %idxprom19
  store ptr %arrayidx20, ptr %v, align 8
  %mOutput21 = getelementptr inbounds %"class.Assimp::STLExporter", ptr %this1, i32 0, i32 0
  %call22 = call noundef nonnull align 8 dereferenceable(8) ptr @_ZStlsISt11char_traitsIcEERSt13basic_ostreamIcT_ES5_PKc(ptr noundef nonnull align 8 dereferenceable(8) %mOutput21, ptr noundef @.str.12)
  %19 = load ptr, ptr %v, align 8
  %x23 = getelementptr inbounds %class.aiVector3t, ptr %19, i32 0, i32 0
  %20 = load float, ptr %x23, align 4
  %call24 = call noundef nonnull align 8 dereferenceable(8) ptr @_ZNSolsEf(ptr noundef nonnull align 8 dereferenceable(8) %call22, float noundef %20)
  %call25 = call noundef nonnull align 8 dereferenceable(8) ptr @_ZStlsISt11char_traitsIcEERSt13basic_ostreamIcT_ES5_PKc(ptr noundef nonnull align 8 dereferenceable(8) %call24, ptr noundef @.str.10)
  %21 = load ptr, ptr %v, align 8
  %y26 = getelementptr inbounds %class.aiVector3t, ptr %21, i32 0, i32 1
  %22 = load float, ptr %y26, align 4
  %call27 = call noundef nonnull align 8 dereferenceable(8) ptr @_ZNSolsEf(ptr noundef nonnull align 8 dereferenceable(8) %call25, float noundef %22)
  %call28 = call noundef nonnull align 8 dereferenceable(8) ptr @_ZStlsISt11char_traitsIcEERSt13basic_ostreamIcT_ES5_PKc(ptr noundef nonnull align 8 dereferenceable(8) %call27, ptr noundef @.str.10)
  %23 = load ptr, ptr %v, align 8
  %z29 = getelementptr inbounds %class.aiVector3t, ptr %23, i32 0, i32 2
  %24 = load float, ptr %z29, align 4
  %call30 = call noundef nonnull align 8 dereferenceable(8) ptr @_ZNSolsEf(ptr noundef nonnull align 8 dereferenceable(8) %call28, float noundef %24)
  %endl31 = getelementptr inbounds %"class.Assimp::STLExporter", ptr %this1, i32 0, i32 2
  %call32 = call noundef nonnull align 8 dereferenceable(8) ptr @_ZStlsIcSt11char_traitsIcESaIcEERSt13basic_ostreamIT_T0_ES7_RKNSt7__cxx1112basic_stringIS4_S5_T1_EE(ptr noundef nonnull align 8 dereferenceable(8) %call30, ptr noundef nonnull align 8 dereferenceable(32) %endl31)
  %mOutput33 = getelementptr inbounds %"class.Assimp::STLExporter", ptr %this1, i32 0, i32 0
  %call34 = call noundef nonnull align 8 dereferenceable(8) ptr @_ZStlsISt11char_traitsIcEERSt13basic_ostreamIcT_ES5_PKc(ptr noundef nonnull align 8 dereferenceable(8) %mOutput33, ptr noundef @.str.12)
  %25 = load ptr, ptr %v, align 8
  %x35 = getelementptr inbounds %class.aiVector3t, ptr %25, i32 0, i32 0
  %26 = load float, ptr %x35, align 4
  %call36 = call noundef nonnull align 8 dereferenceable(8) ptr @_ZNSolsEf(ptr noundef nonnull align 8 dereferenceable(8) %call34, float noundef %26)
  %call37 = call noundef nonnull align 8 dereferenceable(8) ptr @_ZStlsISt11char_traitsIcEERSt13basic_ostreamIcT_ES5_PKc(ptr noundef nonnull align 8 dereferenceable(8) %call36, ptr noundef @.str.10)
  %27 = load ptr, ptr %v, align 8
  %y38 = getelementptr inbounds %class.aiVector3t, ptr %27, i32 0, i32 1
  %28 = load float, ptr %y38, align 4
  %call39 = call noundef nonnull align 8 dereferenceable(8) ptr @_ZNSolsEf(ptr noundef nonnull align 8 dereferenceable(8) %call37, float noundef %28)
  %call40 = call noundef nonnull align 8 dereferenceable(8) ptr @_ZStlsISt11char_traitsIcEERSt13basic_ostreamIcT_ES5_PKc(ptr noundef nonnull align 8 dereferenceable(8) %call39, ptr noundef @.str.10)
  %29 = load ptr, ptr %v, align 8
  %z41 = getelementptr inbounds %class.aiVector3t, ptr %29, i32 0, i32 2
  %30 = load float, ptr %z41, align 4
  %call42 = call noundef nonnull align 8 dereferenceable(8) ptr @_ZNSolsEf(ptr noundef nonnull align 8 dereferenceable(8) %call40, float noundef %30)
  %endl43 = getelementptr inbounds %"class.Assimp::STLExporter", ptr %this1, i32 0, i32 2
  %call44 = call noundef nonnull align 8 dereferenceable(8) ptr @_ZStlsIcSt11char_traitsIcESaIcEERSt13basic_ostreamIT_T0_ES7_RKNSt7__cxx1112basic_stringIS4_S5_T1_EE(ptr noundef nonnull align 8 dereferenceable(8) %call42, ptr noundef nonnull align 8 dereferenceable(32) %endl43)
  %mOutput45 = getelementptr inbounds %"class.Assimp::STLExporter", ptr %this1, i32 0, i32 0
  %call46 = call noundef nonnull align 8 dereferenceable(8) ptr @_ZStlsISt11char_traitsIcEERSt13basic_ostreamIcT_ES5_PKc(ptr noundef nonnull align 8 dereferenceable(8) %mOutput45, ptr noundef @.str.12)
  %31 = load ptr, ptr %v, align 8
  %x47 = getelementptr inbounds %class.aiVector3t, ptr %31, i32 0, i32 0
  %32 = load float, ptr %x47, align 4
  %call48 = call noundef nonnull align 8 dereferenceable(8) ptr @_ZNSolsEf(ptr noundef nonnull align 8 dereferenceable(8) %call46, float noundef %32)
  %call49 = call noundef nonnull align 8 dereferenceable(8) ptr @_ZStlsISt11char_traitsIcEERSt13basic_ostreamIcT_ES5_PKc(ptr noundef nonnull align 8 dereferenceable(8) %call48, ptr noundef @.str.10)
  %33 = load ptr, ptr %v, align 8
  %y50 = getelementptr inbounds %class.aiVector3t, ptr %33, i32 0, i32 1
  %34 = load float, ptr %y50, align 4
  %call51 = call noundef nonnull align 8 dereferenceable(8) ptr @_ZNSolsEf(ptr noundef nonnull align 8 dereferenceable(8) %call49, float noundef %34)
  %call52 = call noundef nonnull align 8 dereferenceable(8) ptr @_ZStlsISt11char_traitsIcEERSt13basic_ostreamIcT_ES5_PKc(ptr noundef nonnull align 8 dereferenceable(8) %call51, ptr noundef @.str.10)
  %35 = load ptr, ptr %v, align 8
  %z53 = getelementptr inbounds %class.aiVector3t, ptr %35, i32 0, i32 2
  %36 = load float, ptr %z53, align 4
  %call54 = call noundef nonnull align 8 dereferenceable(8) ptr @_ZNSolsEf(ptr noundef nonnull align 8 dereferenceable(8) %call52, float noundef %36)
  %endl55 = getelementptr inbounds %"class.Assimp::STLExporter", ptr %this1, i32 0, i32 2
  %call56 = call noundef nonnull align 8 dereferenceable(8) ptr @_ZStlsIcSt11char_traitsIcESaIcEERSt13basic_ostreamIT_T0_ES7_RKNSt7__cxx1112basic_stringIS4_S5_T1_EE(ptr noundef nonnull align 8 dereferenceable(8) %call54, ptr noundef nonnull align 8 dereferenceable(32) %endl55)
  br label %for.inc

for.inc:                                          ; preds = %for.body18
  %37 = load i32, ptr %a, align 4
  %inc = add i32 %37, 1
  store i32 %inc, ptr %a, align 4
  br label %for.cond16, !llvm.loop !12

for.end:                                          ; preds = %for.cond16
  br label %for.inc57

for.inc57:                                        ; preds = %for.end, %if.then
  %38 = load i32, ptr %i, align 4
  %inc58 = add i32 %38, 1
  store i32 %inc58, ptr %i, align 4
  br label %for.cond, !llvm.loop !13

for.end59:                                        ; preds = %for.cond
  %mOutput60 = getelementptr inbounds %"class.Assimp::STLExporter", ptr %this1, i32 0, i32 0
  %39 = load ptr, ptr @_ZL13EndSolidToken, align 8
  %call61 = call noundef nonnull align 8 dereferenceable(8) ptr @_ZStlsISt11char_traitsIcEERSt13basic_ostreamIcT_ES5_PKc(ptr noundef nonnull align 8 dereferenceable(8) %mOutput60, ptr noundef %39)
  %call62 = call noundef nonnull align 8 dereferenceable(8) ptr @_ZStlsISt11char_traitsIcEERSt13basic_ostreamIcT_ES5_PKc(ptr noundef nonnull align 8 dereferenceable(8) %call61, ptr noundef @.str.10)
  %40 = load ptr, ptr %name.addr, align 8
  %call63 = call noundef nonnull align 8 dereferenceable(8) ptr @_ZStlsIcSt11char_traitsIcESaIcEERSt13basic_ostreamIT_T0_ES7_RKNSt7__cxx1112basic_stringIS4_S5_T1_EE(ptr noundef nonnull align 8 dereferenceable(8) %call62, ptr noundef nonnull align 8 dereferenceable(32) %40)
  %endl64 = getelementptr inbounds %"class.Assimp::STLExporter", ptr %this1, i32 0, i32 2
  %call65 = call noundef nonnull align 8 dereferenceable(8) ptr @_ZStlsIcSt11char_traitsIcESaIcEERSt13basic_ostreamIT_T0_ES7_RKNSt7__cxx1112basic_stringIS4_S5_T1_EE(ptr noundef nonnull align 8 dereferenceable(8) %call63, ptr noundef nonnull align 8 dereferenceable(32) %endl64)
  ret void
}