; Function Attrs: mustprogress uwtable
define hidden void @_ZN6Assimp11STLExporter15WritePointCloudERKNSt7__cxx1112basic_stringIcSt11char_traitsIcESaIcEEEPK7aiScene(ptr noundef nonnull align 8 dereferenceable(440) %this, ptr noundef nonnull align 8 dereferenceable(32) %name, ptr nocapture noundef readonly %pScene) local_unnamed_addr #0 align 2 {
entry:
  %call = tail call noundef nonnull align 8 dereferenceable(8) ptr @_ZStlsISt11char_traitsIcEERSt13basic_ostreamIcT_ES5_PKc(ptr noundef nonnull align 8 dereferenceable(8) %this, ptr noundef nonnull @.str.10)
  %call2 = tail call noundef nonnull align 8 dereferenceable(8) ptr @_ZStlsISt11char_traitsIcEERSt13basic_ostreamIcT_ES5_PKc(ptr noundef nonnull align 8 dereferenceable(8) %call, ptr noundef nonnull @.str.16)
  %call3 = tail call noundef nonnull align 8 dereferenceable(8) ptr @_ZStlsISt11char_traitsIcEERSt13basic_ostreamIcT_ES5_PKc(ptr noundef nonnull align 8 dereferenceable(8) %call2, ptr noundef nonnull @.str.10)
  %call4 = tail call noundef nonnull align 8 dereferenceable(8) ptr @_ZStlsIcSt11char_traitsIcESaIcEERSt13basic_ostreamIT_T0_ES7_RKNSt7__cxx1112basic_stringIS4_S5_T1_EE(ptr noundef nonnull align 8 dereferenceable(8) %call3, ptr noundef nonnull align 8 dereferenceable(32) %name)
  %endl = getelementptr inbounds i8, ptr %this, i64 408
  %call5 = tail call noundef nonnull align 8 dereferenceable(8) ptr @_ZStlsIcSt11char_traitsIcESaIcEERSt13basic_ostreamIT_T0_ES7_RKNSt7__cxx1112basic_stringIS4_S5_T1_EE(ptr noundef nonnull align 8 dereferenceable(8) %call4, ptr noundef nonnull align 8 dereferenceable(32) %endl)
  %call7 = tail call noundef nonnull align 8 dereferenceable(8) ptr @_ZStlsISt11char_traitsIcEERSt13basic_ostreamIcT_ES5_PKc(ptr noundef nonnull align 8 dereferenceable(8) %this, ptr noundef nonnull @.str.11)
  %call8 = tail call noundef nonnull align 8 dereferenceable(8) ptr @_ZNSolsEf(ptr noundef nonnull align 8 dereferenceable(8) %call7, float noundef 0.000000e+00)
  %call9 = tail call noundef nonnull align 8 dereferenceable(8) ptr @_ZStlsISt11char_traitsIcEERSt13basic_ostreamIcT_ES5_PKc(ptr noundef nonnull align 8 dereferenceable(8) %call8, ptr noundef nonnull @.str.10)
  %call10 = tail call noundef nonnull align 8 dereferenceable(8) ptr @_ZNSolsEf(ptr noundef nonnull align 8 dereferenceable(8) %call9, float noundef 0.000000e+00)
  %call11 = tail call noundef nonnull align 8 dereferenceable(8) ptr @_ZStlsISt11char_traitsIcEERSt13basic_ostreamIcT_ES5_PKc(ptr noundef nonnull align 8 dereferenceable(8) %call10, ptr noundef nonnull @.str.10)
  %call12 = tail call noundef nonnull align 8 dereferenceable(8) ptr @_ZNSolsEf(ptr noundef nonnull align 8 dereferenceable(8) %call11, float noundef 0.000000e+00)
  %call14 = tail call noundef nonnull align 8 dereferenceable(8) ptr @_ZStlsIcSt11char_traitsIcESaIcEERSt13basic_ostreamIT_T0_ES7_RKNSt7__cxx1112basic_stringIS4_S5_T1_EE(ptr noundef nonnull align 8 dereferenceable(8) %call12, ptr noundef nonnull align 8 dereferenceable(32) %endl)
  %mNumMeshes = getelementptr inbounds i8, ptr %pScene, i64 16
  %0 = load i32, ptr %mNumMeshes, align 8
  %cmp19.not = icmp eq i32 %0, 0
  br i1 %cmp19.not, label %for.end59, label %for.body.lr.ph

for.body.lr.ph:                                   ; preds = %entry
  %mMeshes = getelementptr inbounds i8, ptr %pScene, i64 24
  br label %for.body

for.body:                                         ; preds = %for.body.lr.ph, %for.inc57
  %1 = phi i32 [ %0, %for.body.lr.ph ], [ %17, %for.inc57 ]
  %indvars.iv22 = phi i64 [ 0, %for.body.lr.ph ], [ %indvars.iv.next23, %for.inc57 ]
  %2 = load ptr, ptr %mMeshes, align 8
  %arrayidx = getelementptr inbounds ptr, ptr %2, i64 %indvars.iv22
  %3 = load ptr, ptr %arrayidx, align 8
  %cmp15 = icmp eq ptr %3, null
  br i1 %cmp15, label %for.inc57, label %for.cond16.preheader

for.cond16.preheader:                             ; preds = %for.body
  %mNumVertices = getelementptr inbounds i8, ptr %3, i64 4
  %4 = load i32, ptr %mNumVertices, align 4
  %cmp1717.not = icmp eq i32 %4, 0
  br i1 %cmp1717.not, label %for.inc57, label %for.body18.lr.ph

for.body18.lr.ph:                                 ; preds = %for.cond16.preheader
  %mVertices = getelementptr inbounds i8, ptr %3, i64 16
  br label %for.body18

for.body18:                                       ; preds = %for.body18.lr.ph, %for.body18
  %indvars.iv = phi i64 [ 0, %for.body18.lr.ph ], [ %indvars.iv.next, %for.body18 ]
  %5 = load ptr, ptr %mVertices, align 8
  %arrayidx20 = getelementptr inbounds %class.aiVector3t, ptr %5, i64 %indvars.iv
  %call22 = tail call noundef nonnull align 8 dereferenceable(8) ptr @_ZStlsISt11char_traitsIcEERSt13basic_ostreamIcT_ES5_PKc(ptr noundef nonnull align 8 dereferenceable(8) %this, ptr noundef nonnull @.str.12)
  %6 = load float, ptr %arrayidx20, align 4
  %call24 = tail call noundef nonnull align 8 dereferenceable(8) ptr @_ZNSolsEf(ptr noundef nonnull align 8 dereferenceable(8) %call22, float noundef %6)
  %call25 = tail call noundef nonnull align 8 dereferenceable(8) ptr @_ZStlsISt11char_traitsIcEERSt13basic_ostreamIcT_ES5_PKc(ptr noundef nonnull align 8 dereferenceable(8) %call24, ptr noundef nonnull @.str.10)
  %y26 = getelementptr inbounds i8, ptr %arrayidx20, i64 4
  %7 = load float, ptr %y26, align 4
  %call27 = tail call noundef nonnull align 8 dereferenceable(8) ptr @_ZNSolsEf(ptr noundef nonnull align 8 dereferenceable(8) %call25, float noundef %7)
  %call28 = tail call noundef nonnull align 8 dereferenceable(8) ptr @_ZStlsISt11char_traitsIcEERSt13basic_ostreamIcT_ES5_PKc(ptr noundef nonnull align 8 dereferenceable(8) %call27, ptr noundef nonnull @.str.10)
  %z29 = getelementptr inbounds i8, ptr %arrayidx20, i64 8
  %8 = load float, ptr %z29, align 4
  %call30 = tail call noundef nonnull align 8 dereferenceable(8) ptr @_ZNSolsEf(ptr noundef nonnull align 8 dereferenceable(8) %call28, float noundef %8)
  %call32 = tail call noundef nonnull align 8 dereferenceable(8) ptr @_ZStlsIcSt11char_traitsIcESaIcEERSt13basic_ostreamIT_T0_ES7_RKNSt7__cxx1112basic_stringIS4_S5_T1_EE(ptr noundef nonnull align 8 dereferenceable(8) %call30, ptr noundef nonnull align 8 dereferenceable(32) %endl)
  %call34 = tail call noundef nonnull align 8 dereferenceable(8) ptr @_ZStlsISt11char_traitsIcEERSt13basic_ostreamIcT_ES5_PKc(ptr noundef nonnull align 8 dereferenceable(8) %this, ptr noundef nonnull @.str.12)
  %9 = load float, ptr %arrayidx20, align 4
  %call36 = tail call noundef nonnull align 8 dereferenceable(8) ptr @_ZNSolsEf(ptr noundef nonnull align 8 dereferenceable(8) %call34, float noundef %9)
  %call37 = tail call noundef nonnull align 8 dereferenceable(8) ptr @_ZStlsISt11char_traitsIcEERSt13basic_ostreamIcT_ES5_PKc(ptr noundef nonnull align 8 dereferenceable(8) %call36, ptr noundef nonnull @.str.10)
  %10 = load float, ptr %y26, align 4
  %call39 = tail call noundef nonnull align 8 dereferenceable(8) ptr @_ZNSolsEf(ptr noundef nonnull align 8 dereferenceable(8) %call37, float noundef %10)
  %call40 = tail call noundef nonnull align 8 dereferenceable(8) ptr @_ZStlsISt11char_traitsIcEERSt13basic_ostreamIcT_ES5_PKc(ptr noundef nonnull align 8 dereferenceable(8) %call39, ptr noundef nonnull @.str.10)
  %11 = load float, ptr %z29, align 4
  %call42 = tail call noundef nonnull align 8 dereferenceable(8) ptr @_ZNSolsEf(ptr noundef nonnull align 8 dereferenceable(8) %call40, float noundef %11)
  %call44 = tail call noundef nonnull align 8 dereferenceable(8) ptr @_ZStlsIcSt11char_traitsIcESaIcEERSt13basic_ostreamIT_T0_ES7_RKNSt7__cxx1112basic_stringIS4_S5_T1_EE(ptr noundef nonnull align 8 dereferenceable(8) %call42, ptr noundef nonnull align 8 dereferenceable(32) %endl)
  %call46 = tail call noundef nonnull align 8 dereferenceable(8) ptr @_ZStlsISt11char_traitsIcEERSt13basic_ostreamIcT_ES5_PKc(ptr noundef nonnull align 8 dereferenceable(8) %this, ptr noundef nonnull @.str.12)
  %12 = load float, ptr %arrayidx20, align 4
  %call48 = tail call noundef nonnull align 8 dereferenceable(8) ptr @_ZNSolsEf(ptr noundef nonnull align 8 dereferenceable(8) %call46, float noundef %12)
  %call49 = tail call noundef nonnull align 8 dereferenceable(8) ptr @_ZStlsISt11char_traitsIcEERSt13basic_ostreamIcT_ES5_PKc(ptr noundef nonnull align 8 dereferenceable(8) %call48, ptr noundef nonnull @.str.10)
  %13 = load float, ptr %y26, align 4
  %call51 = tail call noundef nonnull align 8 dereferenceable(8) ptr @_ZNSolsEf(ptr noundef nonnull align 8 dereferenceable(8) %call49, float noundef %13)
  %call52 = tail call noundef nonnull align 8 dereferenceable(8) ptr @_ZStlsISt11char_traitsIcEERSt13basic_ostreamIcT_ES5_PKc(ptr noundef nonnull align 8 dereferenceable(8) %call51, ptr noundef nonnull @.str.10)
  %14 = load float, ptr %z29, align 4
  %call54 = tail call noundef nonnull align 8 dereferenceable(8) ptr @_ZNSolsEf(ptr noundef nonnull align 8 dereferenceable(8) %call52, float noundef %14)
  %call56 = tail call noundef nonnull align 8 dereferenceable(8) ptr @_ZStlsIcSt11char_traitsIcESaIcEERSt13basic_ostreamIT_T0_ES7_RKNSt7__cxx1112basic_stringIS4_S5_T1_EE(ptr noundef nonnull align 8 dereferenceable(8) %call54, ptr noundef nonnull align 8 dereferenceable(32) %endl)
  %indvars.iv.next = add nuw nsw i64 %indvars.iv, 1
  %15 = load i32, ptr %mNumVertices, align 4
  %16 = zext i32 %15 to i64
  %cmp17 = icmp ult i64 %indvars.iv.next, %16
  br i1 %cmp17, label %for.body18, label %for.inc57.loopexit, !llvm.loop !11

for.inc57.loopexit:                               ; preds = %for.body18
  %.pre = load i32, ptr %mNumMeshes, align 8
  br label %for.inc57

for.inc57:                                        ; preds = %for.inc57.loopexit, %for.cond16.preheader, %for.body
  %17 = phi i32 [ %.pre, %for.inc57.loopexit ], [ %1, %for.cond16.preheader ], [ %1, %for.body ]
  %indvars.iv.next23 = add nuw nsw i64 %indvars.iv22, 1
  %18 = zext i32 %17 to i64
  %cmp = icmp ult i64 %indvars.iv.next23, %18
  br i1 %cmp, label %for.body, label %for.end59, !llvm.loop !12

for.end59:                                        ; preds = %for.inc57, %entry
  %call61 = tail call noundef nonnull align 8 dereferenceable(8) ptr @_ZStlsISt11char_traitsIcEERSt13basic_ostreamIcT_ES5_PKc(ptr noundef nonnull align 8 dereferenceable(8) %this, ptr noundef nonnull @.str.17)
  %call62 = tail call noundef nonnull align 8 dereferenceable(8) ptr @_ZStlsISt11char_traitsIcEERSt13basic_ostreamIcT_ES5_PKc(ptr noundef nonnull align 8 dereferenceable(8) %call61, ptr noundef nonnull @.str.10)
  %call63 = tail call noundef nonnull align 8 dereferenceable(8) ptr @_ZStlsIcSt11char_traitsIcESaIcEERSt13basic_ostreamIT_T0_ES7_RKNSt7__cxx1112basic_stringIS4_S5_T1_EE(ptr noundef nonnull align 8 dereferenceable(8) %call62, ptr noundef nonnull align 8 dereferenceable(32) %name)
  %call65 = tail call noundef nonnull align 8 dereferenceable(8) ptr @_ZStlsIcSt11char_traitsIcESaIcEERSt13basic_ostreamIT_T0_ES7_RKNSt7__cxx1112basic_stringIS4_S5_T1_EE(ptr noundef nonnull align 8 dereferenceable(8) %call63, ptr noundef nonnull align 8 dereferenceable(32) %endl)
  ret void
}